Certificate:
    Data:
        Version: 3 (0x2)
        Serial Number: 16880846015234467441 (0xea44d003261e6671)
    Signature Algorithm: sha256WithRSAEncryption
        Issuer: C=TW, ST=Taiwan, O=Logan Chien, CN=logan.tw/emailAddress=tzuhsiang.chien@gmail.com
        Validity
            Not Before: Nov 15 17:13:23 2014 GMT
            Not After : Nov 12 17:13:23 2024 GMT
        Subject: C=TW, ST=Taiwan, O=Logan Chien, CN=logan.tw/emailAddress=tzuhsiang.chien@gmail.com
        Subject Public Key Info:
            Public Key Algorithm: rsaEncryption
                Public-Key: (2048 bit)
                Modulus:
                    00:f5:de:2e:16:aa:c2:62:78:79:12:15:76:ea:aa:
                    99:56:25:e1:83:24:f6:ab:c4:fe:8a:86:73:ce:5e:
                    5e:21:15:16:b4:ab:c6:91:cb:e5:81:c7:89:92:7c:
                    48:31:88:f2:95:26:0d:95:5c:88:7d:e3:ae:f4:3a:
                    15:11:62:bc:91:8a:32:21:4f:e6:bc:0f:2b:cb:79:
                    2f:5a:62:79:e4:02:88:7f:6f:6f:03:dd:ab:c8:02:
                    a0:e2:96:59:c1:27:50:01:63:69:58:9a:05:4c:b0:
                    93:79:4d:42:02:77:03:67:ea:e9:e1:73:30:71:31:
                    bb:89:2f:b0:d9:72:a2:3e:3f:e5:ac:53:49:2e:9b:
                    1c:1a:9f:4b:b3:0e:32:80:9d:a8:09:6c:7b:57:38:
                    6c:24:c9:a5:37:df:fa:1c:8a:ae:ac:b8:e6:51:ee:
                    ae:54:58:5f:8d:c6:1d:a3:78:88:b7:6c:13:96:7a:
                    04:53:c2:4a:e7:95:4b:12:b5:3f:5d:f8:88:83:c9:
                    5b:11:09:35:a5:03:c5:33:a9:57:3c:75:98:26:06:
                    59:ac:c8:f6:d3:ad:1c:8f:11:f1:70:20:15:9a:6f:
                    a5:8d:e7:d8:1e:d9:ff:cc:e5:5a:da:67:56:94:63:
                    91:8e:36:cb:63:a6:29:51:4e:db:d5:d8:fc:57:5e:
                    cb:e9
                Exponent: 65537 (0x10001)
        X509v3 extensions:
            X509v3 Subject Key Identifier: 
                49:CC:81:18:85:A9:7D:A3:AA:49:6C:77:33:2A:17:FC:E6:89:9D:52
            X509v3 Authority Key Identifier: 
                keyid:49:CC:81:18:85:A9:7D:A3:AA:49:6C:77:33:2A:17:FC:E6:89:9D:52

            X509v3 Basic Constraints: 
                CA:TRUE
    Signature Algorithm: sha256WithRSAEncryption
         e0:2f:50:4b:ae:5f:ff:99:29:7c:c4:d6:2d:e5:2b:5b:31:32:
         67:c0:59:e7:71:39:41:d3:ae:42:05:0f:e0:fe:98:cb:64:f3:
         76:e8:2d:7e:c4:c0:1e:a9:b7:f8:c8:6d:c9:0c:3d:09:8b:b4:
         b6:70:e3:9e:a9:74:69:d0:54:da:2e:65:ea:de:18:de:9f:37:
         0b:c7:86:d6:0f:59:f7:93:85:35:3a:01:31:c6:ef:c7:6e:54:
         98:1a:0b:7d:14:56:da:92:99:fa:6c:cf:d7:4d:8b:d5:39:6c:
         68:e7:47:cb:b7:75:74:a2:41:f8:18:a3:93:ba:83:ea:ff:4f:
         35:30:f5:e9:43:ff:a3:14:ce:8a:3a:bb:21:b6:f6:bb:09:10:
         68:ea:56:3c:94:21:83:4d:a2:43:f5:8b:a7:f2:93:ad:2d:4b:
         e7:06:af:9c:7a:31:15:d1:8b:75:14:72:fe:34:02:4d:f2:7c:
         42:cc:28:3a:82:c3:46:39:0c:f8:a0:bd:8e:49:0b:c8:89:f0:
         03:da:55:5e:f5:30:f8:48:03:6e:d6:42:0a:83:82:fe:89:66:
         df:d8:98:9d:58:16:24:65:53:93:e7:43:7e:10:e1:d5:7e:46:
         c1:17:17:c4:68:1c:63:1d:88:a2:c9:f3:a0:83:b9:60:5e:e7:
         37:65:fa:45
-----BEGIN CERTIFICATE-----
MIIDtTCCAp2gAwIBAgIJAOpE0AMmHmZxMA0GCSqGSIb3DQEBCwUAMHExCzAJBgNV
BAYTAlRXMQ8wDQYDVQQIDAZUYWl3YW4xFDASBgNVBAoMC0xvZ2FuIENoaWVuMREw
DwYDVQQDDAhsb2dhbi50dzEoMCYGCSqGSIb3DQEJARYZdHp1aHNpYW5nLmNoaWVu
QGdtYWlsLmNvbTAeFw0xNDExMTUxNzEzMjNaFw0yNDExMTIxNzEzMjNaMHExCzAJ
BgNVBAYTAlRXMQ8wDQYDVQQIDAZUYWl3YW4xFDASBgNVBAoMC0xvZ2FuIENoaWVu
MREwDwYDVQQDDAhsb2dhbi50dzEoMCYGCSqGSIb3DQEJARYZdHp1aHNpYW5nLmNo
aWVuQGdtYWlsLmNvbTCCASIwDQYJKoZIhvcNAQEBBQADggEPADCCAQoCggEBAPXe
LhaqwmJ4eRIVduqqmVYl4YMk9qvE/oqGc85eXiEVFrSrxpHL5YHHiZJ8SDGI8pUm
DZVciH3jrvQ6FRFivJGKMiFP5rwPK8t5L1pieeQCiH9vbwPdq8gCoOKWWcEnUAFj
aViaBUywk3lNQgJ3A2fq6eFzMHExu4kvsNlyoj4/5axTSS6bHBqfS7MOMoCdqAls
e1c4bCTJpTff+hyKrqy45lHurlRYX43GHaN4iLdsE5Z6BFPCSueVSxK1P134iIPJ
WxEJNaUDxTOpVzx1mCYGWazI9tOtHI8R8XAgFZpvpY3n2B7Z/8zlWtpnVpRjkY42
y2OmKVFO29XY/Fdey+kCAwEAAaNQME4wHQYDVR0OBBYEFEnMgRiFqX2jqklsdzMq
F/zmiZ1SMB8GA1UdIwQYMBaAFEnMgRiFqX2jqklsdzMqF/zmiZ1SMAwGA1UdEwQF
MAMBAf8wDQYJKoZIhvcNAQELBQADggEBAOAvUEuuX/+ZKXzE1i3lK1sxMmfAWedx
OUHTrkIFD+D+mMtk83boLX7EwB6pt/jIbckMPQmLtLZw456pdGnQVNouZereGN6f
NwvHhtYPWfeThTU6ATHG78duVJgaC30UVtqSmfpsz9dNi9U5bGjnR8u3dXSiQfgY
o5O6g+r/TzUw9elD/6MUzoo6uyG29rsJEGjqVjyUIYNNokP1i6fyk60tS+cGr5x6
MRXRi3UUcv40Ak3yfELMKDqCw0Y5DPigvY5JC8iJ8APaVV71MPhIA27WQgqDgv6J
Zt/YmJ1YFiRlU5PnQ34Q4dV+RsEXF8RoHGMdiKLJ86CDuWBe5zdl+kU=
-----END CERTIFICATE-----
